target datalayout = "e-m:e-p270:32:32-p271:32:32-p272:64:64-i64:64-i128:128-f80:128-n8:16:32:64-S128"
target triple = "x86_64-pc-linux-gnu"

%"class.llvm::SmallVectorBase" = type { ptr, i32, i32 }
%"class.llvm::SmallPtrSetImplBase.base" = type <{ ptr, ptr, i32, i32, i32 }>
%"class.llvm::MachineRegisterInfo" = type { ptr, %"class.llvm::SmallPtrSet.0", i8, [7 x i8], %"class.llvm::IndexedMap", %"class.llvm::IndexedMap.10", %"class.llvm::StringSet", i8, %"class.llvm::SmallVector.17", %"class.llvm::IndexedMap.23", %"class.std::unique_ptr", %"class.llvm::BitVector", %"class.llvm::BitVector", %"class.llvm::IndexedMap.44", %"class.std::vector" }
%"class.llvm::SmallPtrSet.0" = type { %"class.llvm::SmallPtrSetImpl.base.2", [1 x ptr] }
%"class.llvm::SmallPtrSetImpl.base.2" = type { %"class.llvm::SmallPtrSetImplBase.base" }
%"class.llvm::IndexedMap" = type <{ %"class.llvm::SmallVector.3", %"struct.std::pair", [8 x i8] }>
%"class.llvm::SmallVector.3" = type { %"class.llvm::SmallVectorImpl.4" }
%"class.llvm::SmallVectorImpl.4" = type { %"class.llvm::SmallVectorTemplateBase.5" }
%"class.llvm::SmallVectorTemplateBase.5" = type { %"class.llvm::SmallVectorTemplateCommon.6" }
%"class.llvm::SmallVectorTemplateCommon.6" = type { %"class.llvm::SmallVectorBase" }
%"struct.std::pair" = type { %"class.llvm::PointerUnion", ptr }
%"class.llvm::PointerUnion" = type { %"class.llvm::pointer_union_detail::PointerUnionMembers" }
%"class.llvm::pointer_union_detail::PointerUnionMembers" = type { %"class.llvm::pointer_union_detail::PointerUnionMembers.8" }
%"class.llvm::pointer_union_detail::PointerUnionMembers.8" = type { %"class.llvm::pointer_union_detail::PointerUnionMembers.9" }
%"class.llvm::pointer_union_detail::PointerUnionMembers.9" = type { %"class.llvm::PointerIntPair" }
%"class.llvm::PointerIntPair" = type { %"struct.llvm::detail::PunnedPointer" }
%"struct.llvm::detail::PunnedPointer" = type { [8 x i8] }
%"class.llvm::IndexedMap.10" = type <{ %"class.llvm::SmallVector.11", %"class.std::__cxx11::basic_string", [8 x i8] }>
%"class.llvm::SmallVector.11" = type { %"class.llvm::SmallVectorImpl.12" }
%"class.llvm::SmallVectorImpl.12" = type { %"class.llvm::SmallVectorTemplateBase.13" }
%"class.llvm::SmallVectorTemplateBase.13" = type { %"class.llvm::SmallVectorTemplateCommon.14" }
%"class.llvm::SmallVectorTemplateCommon.14" = type { %"class.llvm::SmallVectorBase" }
%"class.std::__cxx11::basic_string" = type { %"struct.std::__cxx11::basic_string<char>::_Alloc_hider", i64, %union.anon }
%"struct.std::__cxx11::basic_string<char>::_Alloc_hider" = type { ptr }
%union.anon = type { i64, [8 x i8] }
%"class.llvm::StringSet" = type { %"class.llvm::StringMap" }
%"class.llvm::StringMap" = type { %"class.llvm::StringMapImpl" }
%"class.llvm::StringMapImpl" = type { ptr, i32, i32, i32, i32 }
%"class.llvm::SmallVector.17" = type { %"class.llvm::SmallVectorImpl.18", %"struct.llvm::SmallVectorStorage.22" }
%"class.llvm::SmallVectorImpl.18" = type { %"class.llvm::SmallVectorTemplateBase.19" }
%"class.llvm::SmallVectorTemplateBase.19" = type { %"class.llvm::SmallVectorTemplateCommon.20" }
%"class.llvm::SmallVectorTemplateCommon.20" = type { %"class.llvm::SmallVectorBase.21" }
%"class.llvm::SmallVectorBase.21" = type { ptr, i64, i64 }
%"struct.llvm::SmallVectorStorage.22" = type { [32 x i8] }
%"class.llvm::IndexedMap.23" = type <{ %"class.llvm::SmallVector.24", %"struct.std::pair.29", [8 x i8] }>
%"class.llvm::SmallVector.24" = type { %"class.llvm::SmallVectorImpl.25" }
%"class.llvm::SmallVectorImpl.25" = type { %"class.llvm::SmallVectorTemplateBase.26" }
%"class.llvm::SmallVectorTemplateBase.26" = type { %"class.llvm::SmallVectorTemplateCommon.27" }
%"class.llvm::SmallVectorTemplateCommon.27" = type { %"class.llvm::SmallVectorBase" }
%"struct.std::pair.29" = type { i32, %"class.llvm::SmallVector.31" }
%"class.llvm::SmallVector.31" = type { %"class.llvm::SmallVectorImpl.32", %"struct.llvm::SmallVectorStorage.35" }
%"class.llvm::SmallVectorImpl.32" = type { %"class.llvm::SmallVectorTemplateBase.33" }
%"class.llvm::SmallVectorTemplateBase.33" = type { %"class.llvm::SmallVectorTemplateCommon.34" }
%"class.llvm::SmallVectorTemplateCommon.34" = type { %"class.llvm::SmallVectorBase" }
%"struct.llvm::SmallVectorStorage.35" = type { [16 x i8] }
%"class.std::unique_ptr" = type { %"struct.std::__uniq_ptr_data" }
%"struct.std::__uniq_ptr_data" = type { %"class.std::__uniq_ptr_impl" }
%"class.std::__uniq_ptr_impl" = type { %"class.std::tuple" }
%"class.std::tuple" = type { %"struct.std::_Tuple_impl" }
%"struct.std::_Tuple_impl" = type { %"struct.std::_Head_base.38" }
%"struct.std::_Head_base.38" = type { ptr }
%"class.llvm::BitVector" = type <{ %"class.llvm::SmallVector.39", i32, [4 x i8] }>
%"class.llvm::SmallVector.39" = type { %"class.llvm::SmallVectorImpl.40", %"struct.llvm::SmallVectorStorage.43" }
%"class.llvm::SmallVectorImpl.40" = type { %"class.llvm::SmallVectorTemplateBase.41" }
%"class.llvm::SmallVectorTemplateBase.41" = type { %"class.llvm::SmallVectorTemplateCommon.42" }
%"class.llvm::SmallVectorTemplateCommon.42" = type { %"class.llvm::SmallVectorBase" }
%"struct.llvm::SmallVectorStorage.43" = type { [48 x i8] }
%"class.llvm::IndexedMap.44" = type <{ %"class.llvm::SmallVector.45", %"class.llvm::LLT", [8 x i8] }>
%"class.llvm::SmallVector.45" = type { %"class.llvm::SmallVectorImpl.46" }
%"class.llvm::SmallVectorImpl.46" = type { %"class.llvm::SmallVectorTemplateBase.47" }
%"class.llvm::SmallVectorTemplateBase.47" = type { %"class.llvm::SmallVectorTemplateCommon.48" }
%"class.llvm::SmallVectorTemplateCommon.48" = type { %"class.llvm::SmallVectorBase" }
%"class.llvm::LLT" = type { i64 }
%"class.std::vector" = type { %"struct.std::_Vector_base" }
%"struct.std::_Vector_base" = type { %"struct.std::_Vector_base<std::pair<llvm::MCRegister, llvm::Register>, std::allocator<std::pair<llvm::MCRegister, llvm::Register>>>::_Vector_impl" }
%"struct.std::_Vector_base<std::pair<llvm::MCRegister, llvm::Register>, std::allocator<std::pair<llvm::MCRegister, llvm::Register>>>::_Vector_impl" = type { %"struct.std::_Vector_base<std::pair<llvm::MCRegister, llvm::Register>, std::allocator<std::pair<llvm::MCRegister, llvm::Register>>>::_Vector_impl_data" }
%"struct.std::_Vector_base<std::pair<llvm::MCRegister, llvm::Register>, std::allocator<std::pair<llvm::MCRegister, llvm::Register>>>::_Vector_impl_data" = type { ptr, ptr, ptr }
%"class.llvm::MCRegister" = type { i32 }
%"class.llvm::Register" = type { i32 }
%"class.__gnu_cxx::__normal_iterator" = type { ptr }
%"struct.std::pair.156" = type { %"class.llvm::MCRegister", %"class.llvm::Register" }

; Function Attrs: mustprogress nounwind uwtable
define linkonce_odr hidden void @_ZN4llvm23SmallVectorTemplateBaseISt4pairINS_12PointerUnionIJPKNS_19TargetRegisterClassEPKNS_12RegisterBankEEEEPNS_14MachineOperandEELb1EE13destroy_rangeEPSC_SE_(ptr noundef %0, ptr noundef %1) #1 comdat align 2 {
  %3 = alloca ptr, align 8
  %4 = alloca ptr, align 8
  store ptr %0, ptr %3, align 8
  store ptr %1, ptr %4, align 8
  ret void
}

; Function Attrs: mustprogress nounwind uwtable
define linkonce_odr hidden noundef ptr @_ZN4llvm25SmallVectorTemplateCommonISt4pairINS_12PointerUnionIJPKNS_19TargetRegisterClassEPKNS_12RegisterBankEEEEPNS_14MachineOperandEEvE3endEv(ptr noundef nonnull align 8 dereferenceable(16) %0) #1 comdat align 2 {
  %2 = alloca ptr, align 8
  store ptr %0, ptr %2, align 8
  %3 = load ptr, ptr %2, align 8
  %4 = call noundef ptr @_ZN4llvm25SmallVectorTemplateCommonISt4pairINS_12PointerUnionIJPKNS_19TargetRegisterClassEPKNS_12RegisterBankEEEEPNS_14MachineOperandEEvE5beginEv(ptr noundef nonnull align 8 dereferenceable(16) %3)
  %5 = call noundef i64 @_ZNK4llvm15SmallVectorBaseIjE4sizeEv(ptr noundef nonnull align 8 dereferenceable(16) %3)
  %6 = getelementptr inbounds %"struct.std::pair", ptr %4, i64 %5
  ret ptr %6
}

; Function Attrs: mustprogress nounwind uwtable
define linkonce_odr hidden noundef ptr @_ZN4llvm25SmallVectorTemplateCommonISt4pairINS_12PointerUnionIJPKNS_19TargetRegisterClassEPKNS_12RegisterBankEEEEPNS_14MachineOperandEEvE5beginEv(ptr noundef nonnull align 8 dereferenceable(16) %0) #1 comdat align 2 {
  %2 = alloca ptr, align 8
  store ptr %0, ptr %2, align 8
  %3 = load ptr, ptr %2, align 8
  %4 = getelementptr inbounds nuw %"class.llvm::SmallVectorBase", ptr %3, i32 0, i32 0
  %5 = load ptr, ptr %4, align 8
  ret ptr %5
}

; Function Attrs: mustprogress nounwind uwtable
define linkonce_odr hidden noundef nonnull align 8 dereferenceable(8) ptr @_ZNK9__gnu_cxx17__normal_iteratorIPSt4pairIN4llvm10MCRegisterENS2_8RegisterEESt6vectorIS5_SaIS5_EEE4baseEv(ptr noundef nonnull align 8 dereferenceable(8) %0) #1 comdat align 2 {
  %2 = alloca ptr, align 8
  store ptr %0, ptr %2, align 8
  %3 = load ptr, ptr %2, align 8
  %4 = getelementptr inbounds nuw %"class.__gnu_cxx::__normal_iterator", ptr %3, i32 0, i32 0
  ret ptr %4
}

; Function Attrs: mustprogress nounwind uwtable
define linkonce_odr hidden void @_ZN9__gnu_cxx17__normal_iteratorIPSt4pairIN4llvm10MCRegisterENS2_8RegisterEESt6vectorIS5_SaIS5_EEEC2ERKS6_(ptr noundef nonnull align 8 dereferenceable(8) %0, ptr noundef nonnull align 8 dereferenceable(8) %1) unnamed_addr #1 comdat align 2 {
  %3 = alloca ptr, align 8
  %4 = alloca ptr, align 8
  store ptr %0, ptr %3, align 8
  store ptr %1, ptr %4, align 8
  %5 = load ptr, ptr %3, align 8
  %6 = getelementptr inbounds nuw %"class.__gnu_cxx::__normal_iterator", ptr %5, i32 0, i32 0
  %7 = load ptr, ptr %4, align 8
  %8 = load ptr, ptr %7, align 8
  store ptr %8, ptr %6, align 8
  ret void
}

; Function Attrs: mustprogress nounwind uwtable
define linkonce_odr hidden void @_ZN4llvm15SmallVectorImplISt4pairINS_12PointerUnionIJPKNS_19TargetRegisterClassEPKNS_12RegisterBankEEEEPNS_14MachineOperandEEE5clearEv(ptr noundef nonnull align 8 dereferenceable(16) %0) #1 comdat align 2 {
  %2 = alloca ptr, align 8
  store ptr %0, ptr %2, align 8
  %3 = load ptr, ptr %2, align 8
  %4 = call noundef ptr @_ZN4llvm25SmallVectorTemplateCommonISt4pairINS_12PointerUnionIJPKNS_19TargetRegisterClassEPKNS_12RegisterBankEEEEPNS_14MachineOperandEEvE5beginEv(ptr noundef nonnull align 8 dereferenceable(16) %3)
  %5 = call noundef ptr @_ZN4llvm25SmallVectorTemplateCommonISt4pairINS_12PointerUnionIJPKNS_19TargetRegisterClassEPKNS_12RegisterBankEEEEPNS_14MachineOperandEEvE3endEv(ptr noundef nonnull align 8 dereferenceable(16) %3)
  call void @_ZN4llvm23SmallVectorTemplateBaseISt4pairINS_12PointerUnionIJPKNS_19TargetRegisterClassEPKNS_12RegisterBankEEEEPNS_14MachineOperandEELb1EE13destroy_rangeEPSC_SE_(ptr noundef %4, ptr noundef %5)
  %6 = getelementptr inbounds nuw %"class.llvm::SmallVectorBase", ptr %3, i32 0, i32 1
  store i32 0, ptr %6, align 8
  ret void
}

; Function Attrs: mustprogress nounwind uwtable
define linkonce_odr hidden noundef nonnull align 8 dereferenceable(8) ptr @_ZN9__gnu_cxx17__normal_iteratorIPSt4pairIN4llvm10MCRegisterENS2_8RegisterEESt6vectorIS5_SaIS5_EEEppEv(ptr noundef nonnull align 8 dereferenceable(8) %0) #1 comdat align 2 {
  %2 = alloca ptr, align 8
  store ptr %0, ptr %2, align 8
  %3 = load ptr, ptr %2, align 8
  %4 = getelementptr inbounds nuw %"class.__gnu_cxx::__normal_iterator", ptr %3, i32 0, i32 0
  %5 = load ptr, ptr %4, align 8
  %6 = getelementptr inbounds %"struct.std::pair.156", ptr %5, i32 1
  store ptr %6, ptr %4, align 8
  ret ptr %3
}

; Function Attrs: mustprogress nounwind uwtable
define linkonce_odr hidden void @_ZN4llvm8RegisterC2Ej(ptr noundef nonnull align 4 dereferenceable(4) %0, i32 noundef %1) unnamed_addr #1 comdat align 2 {
  %3 = alloca ptr, align 8
  %4 = alloca i32, align 4
  store ptr %0, ptr %3, align 8
  store i32 %1, ptr %4, align 4
  %5 = load ptr, ptr %3, align 8
  %6 = getelementptr inbounds nuw %"class.llvm::Register", ptr %5, i32 0, i32 0
  %7 = load i32, ptr %4, align 4
  store i32 %7, ptr %6, align 4
  ret void
}

; Function Attrs: mustprogress nounwind uwtable
define linkonce_odr hidden noundef nonnull align 4 dereferenceable(8) ptr @_ZNK9__gnu_cxx17__normal_iteratorIPSt4pairIN4llvm10MCRegisterENS2_8RegisterEESt6vectorIS5_SaIS5_EEEdeEv(ptr noundef nonnull align 8 dereferenceable(8) %0) #1 comdat align 2 {
  %2 = alloca ptr, align 8
  store ptr %0, ptr %2, align 8
  %3 = load ptr, ptr %2, align 8
  %4 = getelementptr inbounds nuw %"class.__gnu_cxx::__normal_iterator", ptr %3, i32 0, i32 0
  %5 = load ptr, ptr %4, align 8
  ret ptr %5
}

; Function Attrs: mustprogress nounwind uwtable
define linkonce_odr noundef zeroext i1 @_ZN9__gnu_cxxneIPSt4pairIN4llvm10MCRegisterENS2_8RegisterEESt6vectorIS5_SaIS5_EEEEbRKNS_17__normal_iteratorIT_T0_EESF_(ptr noundef nonnull align 8 dereferenceable(8) %0, ptr noundef nonnull align 8 dereferenceable(8) %1) #1 comdat {
  %3 = alloca ptr, align 8
  %4 = alloca ptr, align 8
  store ptr %0, ptr %3, align 8
  store ptr %1, ptr %4, align 8
  %5 = load ptr, ptr %3, align 8
  %6 = call noundef nonnull align 8 dereferenceable(8) ptr @_ZNK9__gnu_cxx17__normal_iteratorIPSt4pairIN4llvm10MCRegisterENS2_8RegisterEESt6vectorIS5_SaIS5_EEE4baseEv(ptr noundef nonnull align 8 dereferenceable(8) %5) #2
  %7 = load ptr, ptr %6, align 8
  %8 = load ptr, ptr %4, align 8
  %9 = call noundef nonnull align 8 dereferenceable(8) ptr @_ZNK9__gnu_cxx17__normal_iteratorIPSt4pairIN4llvm10MCRegisterENS2_8RegisterEESt6vectorIS5_SaIS5_EEE4baseEv(ptr noundef nonnull align 8 dereferenceable(8) %8) #2
  %10 = load ptr, ptr %9, align 8
  %11 = icmp ne ptr %7, %10
  ret i1 %11
}

; Function Attrs: mustprogress nounwind uwtable
define linkonce_odr hidden ptr @_ZNSt6vectorISt4pairIN4llvm10MCRegisterENS1_8RegisterEESaIS4_EE3endEv(ptr noundef nonnull align 8 dereferenceable(24) %0) #1 comdat align 2 {
  %2 = alloca %"class.__gnu_cxx::__normal_iterator", align 8
  %3 = alloca ptr, align 8
  store ptr %0, ptr %3, align 8
  %4 = load ptr, ptr %3, align 8
  %5 = getelementptr inbounds nuw %"struct.std::_Vector_base", ptr %4, i32 0, i32 0
  %6 = getelementptr inbounds nuw %"struct.std::_Vector_base<std::pair<llvm::MCRegister, llvm::Register>, std::allocator<std::pair<llvm::MCRegister, llvm::Register>>>::_Vector_impl_data", ptr %5, i32 0, i32 1
  call void @_ZN9__gnu_cxx17__normal_iteratorIPSt4pairIN4llvm10MCRegisterENS2_8RegisterEESt6vectorIS5_SaIS5_EEEC2ERKS6_(ptr noundef nonnull align 8 dereferenceable(8) %2, ptr noundef nonnull align 8 dereferenceable(8) %6) #2
  %7 = getelementptr inbounds nuw %"class.__gnu_cxx::__normal_iterator", ptr %2, i32 0, i32 0
  %8 = load ptr, ptr %7, align 8
  ret ptr %8
}

; Function Attrs: mustprogress nounwind uwtable
define linkonce_odr hidden ptr @_ZNSt6vectorISt4pairIN4llvm10MCRegisterENS1_8RegisterEESaIS4_EE5beginEv(ptr noundef nonnull align 8 dereferenceable(24) %0) #1 comdat align 2 {
  %2 = alloca %"class.__gnu_cxx::__normal_iterator", align 8
  %3 = alloca ptr, align 8
  store ptr %0, ptr %3, align 8
  %4 = load ptr, ptr %3, align 8
  %5 = getelementptr inbounds nuw %"struct.std::_Vector_base", ptr %4, i32 0, i32 0
  %6 = getelementptr inbounds nuw %"struct.std::_Vector_base<std::pair<llvm::MCRegister, llvm::Register>, std::allocator<std::pair<llvm::MCRegister, llvm::Register>>>::_Vector_impl_data", ptr %5, i32 0, i32 0
  call void @_ZN9__gnu_cxx17__normal_iteratorIPSt4pairIN4llvm10MCRegisterENS2_8RegisterEESt6vectorIS5_SaIS5_EEEC2ERKS6_(ptr noundef nonnull align 8 dereferenceable(8) %2, ptr noundef nonnull align 8 dereferenceable(8) %6) #2
  %7 = getelementptr inbounds nuw %"class.__gnu_cxx::__normal_iterator", ptr %2, i32 0, i32 0
  %8 = load ptr, ptr %7, align 8
  ret ptr %8
}

; Function Attrs: mustprogress nounwind uwtable
define linkonce_odr hidden void @_ZN4llvm10IndexedMapISt4pairINS_12PointerUnionIJPKNS_19TargetRegisterClassEPKNS_12RegisterBankEEEEPNS_14MachineOperandEENS_20VirtReg2IndexFunctorEE5clearEv(ptr noundef nonnull align 8 dereferenceable(33) %0) #1 comdat align 2 {
  %2 = alloca ptr, align 8
  store ptr %0, ptr %2, align 8
  %3 = load ptr, ptr %2, align 8
  %4 = getelementptr inbounds nuw %"class.llvm::IndexedMap", ptr %3, i32 0, i32 0
  call void @_ZN4llvm15SmallVectorImplISt4pairINS_12PointerUnionIJPKNS_19TargetRegisterClassEPKNS_12RegisterBankEEEEPNS_14MachineOperandEEE5clearEv(ptr noundef nonnull align 8 dereferenceable(16) %4)
  ret void
}

; Function Attrs: mustprogress nounwind uwtable
define dso_local void @_ZN4llvm19MachineRegisterInfo13clearVirtRegsEv(ptr noundef nonnull align 8 dereferenceable(512) %0) #1 align 2 {
  %2 = alloca ptr, align 8
  %3 = alloca ptr, align 8
  %4 = alloca %"class.__gnu_cxx::__normal_iterator", align 8
  %5 = alloca %"class.__gnu_cxx::__normal_iterator", align 8
  %6 = alloca ptr, align 8
  %7 = alloca %"class.llvm::Register", align 4
  store ptr %0, ptr %2, align 8
  %8 = load ptr, ptr %2, align 8
  %9 = getelementptr inbounds nuw %"class.llvm::MachineRegisterInfo", ptr %8, i32 0, i32 4
  call void @_ZN4llvm10IndexedMapISt4pairINS_12PointerUnionIJPKNS_19TargetRegisterClassEPKNS_12RegisterBankEEEEPNS_14MachineOperandEENS_20VirtReg2IndexFunctorEE5clearEv(ptr noundef nonnull align 8 dereferenceable(33) %9)
  %10 = getelementptr inbounds nuw %"class.llvm::MachineRegisterInfo", ptr %8, i32 0, i32 14
  store ptr %10, ptr %3, align 8
  %11 = load ptr, ptr %3, align 8
  %12 = call ptr @_ZNSt6vectorISt4pairIN4llvm10MCRegisterENS1_8RegisterEESaIS4_EE5beginEv(ptr noundef nonnull align 8 dereferenceable(24) %11) #2
  %13 = getelementptr inbounds nuw %"class.__gnu_cxx::__normal_iterator", ptr %4, i32 0, i32 0
  store ptr %12, ptr %13, align 8
  %14 = load ptr, ptr %3, align 8
  %15 = call ptr @_ZNSt6vectorISt4pairIN4llvm10MCRegisterENS1_8RegisterEESaIS4_EE3endEv(ptr noundef nonnull align 8 dereferenceable(24) %14) #2
  %16 = getelementptr inbounds nuw %"class.__gnu_cxx::__normal_iterator", ptr %5, i32 0, i32 0
  store ptr %15, ptr %16, align 8
  br label %17

17:                                               ; preds = %23, %1
  %18 = call noundef zeroext i1 @_ZN9__gnu_cxxneIPSt4pairIN4llvm10MCRegisterENS2_8RegisterEESt6vectorIS5_SaIS5_EEEEbRKNS_17__normal_iteratorIT_T0_EESF_(ptr noundef nonnull align 8 dereferenceable(8) %4, ptr noundef nonnull align 8 dereferenceable(8) %5) #2
  br i1 %18, label %19, label %25

19:                                               ; preds = %17
  %20 = call noundef nonnull align 4 dereferenceable(8) ptr @_ZNK9__gnu_cxx17__normal_iteratorIPSt4pairIN4llvm10MCRegisterENS2_8RegisterEESt6vectorIS5_SaIS5_EEEdeEv(ptr noundef nonnull align 8 dereferenceable(8) %4) #2
  store ptr %20, ptr %6, align 8
  call void @_ZN4llvm8RegisterC2Ej(ptr noundef nonnull align 4 dereferenceable(4) %7, i32 noundef 0)
  %21 = load ptr, ptr %6, align 8
  %22 = getelementptr inbounds nuw %"struct.std::pair.156", ptr %21, i32 0, i32 1
  call void @llvm.memcpy.p0.p0.i64(ptr align 4 %22, ptr align 4 %7, i64 4, i1 false)
  br label %23

23:                                               ; preds = %19
  %24 = call noundef nonnull align 8 dereferenceable(8) ptr @_ZN9__gnu_cxx17__normal_iteratorIPSt4pairIN4llvm10MCRegisterENS2_8RegisterEESt6vectorIS5_SaIS5_EEEppEv(ptr noundef nonnull align 8 dereferenceable(8) %4) #2
  br label %17

25:                                               ; preds = %17
  ret void
}