; Function Attrs: mustprogress nounwind uwtable
define dso_local void @_ZN4llvm19MachineRegisterInfo13clearVirtRegsEv(ptr noundef nonnull align 8 dereferenceable(512) %0) local_unnamed_addr #0 align 2 {
  %2 = getelementptr inbounds nuw i8, ptr %0, i64 56
  %3 = tail call noundef i64 @_ZNK4llvm15SmallVectorBaseIjE4sizeEv(ptr noundef nonnull align 8 dereferenceable(33) %2) #20
  %4 = getelementptr inbounds nuw i8, ptr %0, i64 64
  store i32 0, ptr %4, align 8
  %5 = getelementptr inbounds nuw i8, ptr %0, i64 488
  %6 = load ptr, ptr %5, align 8
  %7 = getelementptr inbounds nuw i8, ptr %0, i64 496
  %8 = load ptr, ptr %7, align 8
  %.not8 = icmp eq ptr %6, %8
  br i1 %.not8, label %._crit_edge, label %.lr.ph

.lr.ph:                                           ; preds = %1, %.lr.ph
  %.sroa.05.09 = phi ptr [ %10, %.lr.ph ], [ %6, %1 ]
  %9 = getelementptr inbounds nuw i8, ptr %.sroa.05.09, i64 4
  store i32 0, ptr %9, align 4
  %10 = getelementptr inbounds nuw i8, ptr %.sroa.05.09, i64 8
  %.not = icmp eq ptr %10, %8
  br i1 %.not, label %._crit_edge, label %.lr.ph

._crit_edge:                                      ; preds = %.lr.ph, %1
  ret void
}